target datalayout = "e-m:e-p270:32:32-p271:32:32-p272:64:64-i64:64-i128:128-f80:128-n8:16:32:64-S128"
target triple = "x86_64-pc-linux-gnu"

%struct.pmix_value = type { i16, %union.anon }
%union.anon = type { %struct.pmix_envar_t }
%struct.pmix_envar_t = type { ptr, ptr, i8 }
%struct.pmix_info = type { [512 x i8], i32, %struct.pmix_value }

; Function Attrs: inlinehint nounwind uwtable
define internal void @pmix_strncpy(ptr noundef %0, ptr noundef %1, i64 noundef %2) #1 {
  %4 = alloca ptr, align 8
  %5 = alloca ptr, align 8
  %6 = alloca i64, align 8
  %7 = alloca i64, align 8
  store ptr %0, ptr %4, align 8, !tbaa !3
  store ptr %1, ptr %5, align 8, !tbaa !3
  store i64 %2, ptr %6, align 8, !tbaa !30
  call void @llvm.lifetime.start.p0(i64 8, ptr %7) #15
  store i64 0, ptr %7, align 8, !tbaa !30
  br label %8

8:                                                ; preds = %22, %3
  %9 = load i64, ptr %7, align 8, !tbaa !30
  %10 = load i64, ptr %6, align 8, !tbaa !30
  %11 = icmp ult i64 %9, %10
  br i1 %11, label %12, label %29

12:                                               ; preds = %8
  %13 = load ptr, ptr %5, align 8, !tbaa !3
  %14 = load i8, ptr %13, align 1, !tbaa !29
  %15 = load ptr, ptr %4, align 8, !tbaa !3
  store i8 %14, ptr %15, align 1, !tbaa !29
  %16 = load ptr, ptr %5, align 8, !tbaa !3
  %17 = load i8, ptr %16, align 1, !tbaa !29
  %18 = sext i8 %17 to i32
  %19 = icmp eq i32 0, %18
  br i1 %19, label %20, label %21

20:                                               ; preds = %12
  br label %29

21:                                               ; preds = %12
  br label %22

22:                                               ; preds = %21
  %23 = load i64, ptr %7, align 8, !tbaa !30
  %24 = add i64 %23, 1
  store i64 %24, ptr %7, align 8, !tbaa !30
  %25 = load ptr, ptr %5, align 8, !tbaa !3
  %26 = getelementptr inbounds nuw i8, ptr %25, i32 1
  store ptr %26, ptr %5, align 8, !tbaa !3
  %27 = load ptr, ptr %4, align 8, !tbaa !3
  %28 = getelementptr inbounds nuw i8, ptr %27, i32 1
  store ptr %28, ptr %4, align 8, !tbaa !3
  br label %8, !llvm.loop !224

29:                                               ; preds = %20, %8
  %30 = load ptr, ptr %4, align 8, !tbaa !3
  store i8 0, ptr %30, align 1, !tbaa !29
  call void @llvm.lifetime.end.p0(i64 8, ptr %7) #15
  ret void
}

; Function Attrs: inlinehint nounwind uwtable
define internal zeroext i1 @pmix_bfrops_base_tma_info_is_persistent(ptr noundef %0, ptr noundef %1) #1 {
  %3 = alloca ptr, align 8
  %4 = alloca ptr, align 8
  store ptr %0, ptr %3, align 8, !tbaa !54
  store ptr %1, ptr %4, align 8, !tbaa !8
  %5 = load ptr, ptr %3, align 8, !tbaa !54
  %6 = getelementptr inbounds nuw %struct.pmix_info, ptr %5, i32 0, i32 1
  %7 = load i32, ptr %6, align 8, !tbaa !56
  %8 = and i32 %7, 16
  %9 = icmp ne i32 %8, 0
  ret i1 %9
}

; Function Attrs: inlinehint nounwind uwtable
define internal void @pmix_bfrops_base_tma_load_key(ptr noundef %0, ptr noundef %1, ptr noundef %2) #1 {
  %4 = alloca ptr, align 8
  %5 = alloca ptr, align 8
  %6 = alloca ptr, align 8
  store ptr %0, ptr %4, align 8, !tbaa !3
  store ptr %1, ptr %5, align 8, !tbaa !3
  store ptr %2, ptr %6, align 8, !tbaa !8
  %7 = load ptr, ptr %4, align 8, !tbaa !3
  call void @llvm.memset.p0.i64(ptr align 1 %7, i8 0, i64 512, i1 false)
  %8 = load ptr, ptr %5, align 8, !tbaa !3
  %9 = icmp ne ptr null, %8
  br i1 %9, label %10, label %13

10:                                               ; preds = %3
  %11 = load ptr, ptr %4, align 8, !tbaa !3
  %12 = load ptr, ptr %5, align 8, !tbaa !3
  call void @pmix_strncpy(ptr noundef %11, ptr noundef %12, i64 noundef 511)
  br label %13

13:                                               ; preds = %10, %3
  ret void
}

; Function Attrs: inlinehint nounwind uwtable
define internal i32 @pmix_bfrops_base_tma_info_xfer(ptr noundef %0, ptr noundef %1, ptr noundef %2) #1 {
  %4 = alloca i32, align 4
  %5 = alloca ptr, align 8
  %6 = alloca ptr, align 8
  %7 = alloca ptr, align 8
  %8 = alloca i32, align 4
  %9 = alloca i32, align 4
  store ptr %0, ptr %5, align 8, !tbaa !54
  store ptr %1, ptr %6, align 8, !tbaa !54
  store ptr %2, ptr %7, align 8, !tbaa !8
  call void @llvm.lifetime.start.p0(i64 4, ptr %8) #15
  %10 = load ptr, ptr %5, align 8, !tbaa !54
  %11 = icmp eq ptr null, %10
  br i1 %11, label %15, label %12

12:                                               ; preds = %3
  %13 = load ptr, ptr %6, align 8, !tbaa !54
  %14 = icmp eq ptr null, %13
  br label %15

15:                                               ; preds = %12, %3
  %16 = phi i1 [ true, %3 ], [ %14, %12 ]
  %17 = xor i1 %16, true
  %18 = xor i1 %17, true
  %19 = zext i1 %18 to i32
  %20 = sext i32 %19 to i64
  %21 = call i64 @llvm.expect.i64(i64 %20, i64 0)
  %22 = icmp ne i64 %21, 0
  br i1 %22, label %23, label %24

23:                                               ; preds = %15
  store i32 -27, ptr %4, align 4
  store i32 1, ptr %9, align 4
  br label %54

24:                                               ; preds = %15
  %25 = load ptr, ptr %5, align 8, !tbaa !54
  %26 = getelementptr inbounds nuw %struct.pmix_info, ptr %25, i32 0, i32 0
  %27 = getelementptr inbounds [512 x i8], ptr %26, i64 0, i64 0
  %28 = load ptr, ptr %6, align 8, !tbaa !54
  %29 = getelementptr inbounds nuw %struct.pmix_info, ptr %28, i32 0, i32 0
  %30 = getelementptr inbounds [512 x i8], ptr %29, i64 0, i64 0
  %31 = load ptr, ptr %7, align 8, !tbaa !8
  call void @pmix_bfrops_base_tma_load_key(ptr noundef %27, ptr noundef %30, ptr noundef %31)
  %32 = load ptr, ptr %6, align 8, !tbaa !54
  %33 = getelementptr inbounds nuw %struct.pmix_info, ptr %32, i32 0, i32 1
  %34 = load i32, ptr %33, align 8, !tbaa !56
  %35 = load ptr, ptr %5, align 8, !tbaa !54
  %36 = getelementptr inbounds nuw %struct.pmix_info, ptr %35, i32 0, i32 1
  store i32 %34, ptr %36, align 8, !tbaa !56
  %37 = load ptr, ptr %6, align 8, !tbaa !54
  %38 = load ptr, ptr %7, align 8, !tbaa !8
  %39 = call zeroext i1 @pmix_bfrops_base_tma_info_is_persistent(ptr noundef %37, ptr noundef %38)
  br i1 %39, label %40, label %45

40:                                               ; preds = %24
  %41 = load ptr, ptr %5, align 8, !tbaa !54
  %42 = getelementptr inbounds nuw %struct.pmix_info, ptr %41, i32 0, i32 2
  %43 = load ptr, ptr %6, align 8, !tbaa !54
  %44 = getelementptr inbounds nuw %struct.pmix_info, ptr %43, i32 0, i32 2
  call void @llvm.memcpy.p0.p0.i64(ptr align 8 %42, ptr align 8 %44, i64 32, i1 false)
  store i32 0, ptr %8, align 4, !tbaa !12
  br label %52

45:                                               ; preds = %24
  %46 = load ptr, ptr %5, align 8, !tbaa !54
  %47 = getelementptr inbounds nuw %struct.pmix_info, ptr %46, i32 0, i32 2
  %48 = load ptr, ptr %6, align 8, !tbaa !54
  %49 = getelementptr inbounds nuw %struct.pmix_info, ptr %48, i32 0, i32 2
  %50 = load ptr, ptr %7, align 8, !tbaa !8
  %51 = call i32 @pmix_bfrops_base_tma_value_xfer(ptr noundef %47, ptr noundef %49, ptr noundef %50)
  store i32 %51, ptr %8, align 4, !tbaa !12
  br label %52

52:                                               ; preds = %45, %40
  %53 = load i32, ptr %8, align 4, !tbaa !12
  store i32 %53, ptr %4, align 4
  store i32 1, ptr %9, align 4
  br label %54

54:                                               ; preds = %52, %23
  call void @llvm.lifetime.end.p0(i64 4, ptr %8) #15
  %55 = load i32, ptr %4, align 4
  ret i32 %55
}

; Function Attrs: nounwind uwtable
define i32 @PMIx_Info_xfer(ptr noundef %0, ptr noundef %1) #0 {
  %3 = alloca ptr, align 8
  %4 = alloca ptr, align 8
  store ptr %0, ptr %3, align 8, !tbaa !54
  store ptr %1, ptr %4, align 8, !tbaa !54
  %5 = load ptr, ptr %3, align 8, !tbaa !54
  %6 = load ptr, ptr %4, align 8, !tbaa !54
  %7 = call i32 @pmix_bfrops_base_tma_info_xfer(ptr noundef %5, ptr noundef %6, ptr noundef null)
  ret i32 %7
}