; Function Attrs: nounwind uwtable
define i32 @PMIx_Info_xfer(ptr noundef %0, ptr noundef %1) local_unnamed_addr #6 {
  %3 = icmp eq ptr %0, null
  %4 = icmp eq ptr %1, null
  %5 = or i1 %3, %4
  br i1 %5, label %pmix_bfrops_base_tma_info_xfer.exit, label %6, !prof !77

6:                                                ; preds = %2
  tail call void @llvm.memset.p0.i64(ptr noundef nonnull align 1 dereferenceable(512) %0, i8 0, i64 512, i1 false)
  br label %.lr.ph.i.i.i

.lr.ph.i.i.i:                                     ; preds = %9, %6
  %.012.i.i.i = phi i64 [ %10, %9 ], [ 0, %6 ]
  %.0811.i.i.i = phi ptr [ %12, %9 ], [ %0, %6 ]
  %.0910.i.i.i = phi ptr [ %11, %9 ], [ %1, %6 ]
  %7 = load i8, ptr %.0910.i.i.i, align 1, !tbaa !3
  store i8 %7, ptr %.0811.i.i.i, align 1, !tbaa !3
  %8 = icmp eq i8 %7, 0
  br i1 %8, label %pmix_bfrops_base_tma_load_key.exit.i, label %9

9:                                                ; preds = %.lr.ph.i.i.i
  %10 = add nuw nsw i64 %.012.i.i.i, 1
  %11 = getelementptr inbounds nuw i8, ptr %.0910.i.i.i, i64 1
  %12 = getelementptr inbounds nuw i8, ptr %.0811.i.i.i, i64 1
  %exitcond.not.i.i.i = icmp eq i64 %10, 511
  br i1 %exitcond.not.i.i.i, label %pmix_bfrops_base_tma_load_key.exit.i, label %.lr.ph.i.i.i, !llvm.loop !6

pmix_bfrops_base_tma_load_key.exit.i:             ; preds = %9, %.lr.ph.i.i.i
  %.08.lcssa.i.i.i = phi ptr [ %.0811.i.i.i, %.lr.ph.i.i.i ], [ %12, %9 ]
  store i8 0, ptr %.08.lcssa.i.i.i, align 1, !tbaa !3
  %13 = getelementptr inbounds nuw i8, ptr %1, i64 512
  %14 = load i32, ptr %13, align 8, !tbaa !80
  %15 = getelementptr inbounds nuw i8, ptr %0, i64 512
  store i32 %14, ptr %15, align 8, !tbaa !80
  %16 = and i32 %14, 16
  %.not.i = icmp eq i32 %16, 0
  %17 = getelementptr inbounds nuw i8, ptr %0, i64 520
  %18 = getelementptr inbounds nuw i8, ptr %1, i64 520
  br i1 %.not.i, label %20, label %19

19:                                               ; preds = %pmix_bfrops_base_tma_load_key.exit.i
  tail call void @llvm.memcpy.p0.p0.i64(ptr noundef nonnull align 8 dereferenceable(32) %17, ptr noundef nonnull align 8 dereferenceable(32) %18, i64 32, i1 false)
  br label %pmix_bfrops_base_tma_info_xfer.exit

20:                                               ; preds = %pmix_bfrops_base_tma_load_key.exit.i
  %21 = tail call fastcc i32 @pmix_bfrops_base_tma_value_xfer(ptr noundef nonnull %17, ptr noundef nonnull %18)
  br label %pmix_bfrops_base_tma_info_xfer.exit

pmix_bfrops_base_tma_info_xfer.exit:              ; preds = %2, %19, %20
  %.015.i = phi i32 [ -27, %2 ], [ 0, %19 ], [ %21, %20 ]
  ret i32 %.015.i
}